(dp0
S'nb_pool'
p1
(lp2
I2
asS'activation'
p3
(lp4
S'relu'
p5
ag5
ag5
ag5
ag5
aS'softmax'
p6
asS'sgd_momentum'
p7
F0.5784898082919554
sS'img_cols'
p8
I28
sS'sgd_decay'
p9
F4.376007848704993e-06
sS'dropout'
p10
(lp11
F0.19150533895848879
aF0.061182570221108984
aF0.45575322544981534
aF0.17175430850239617
asS'border_mode'
p12
S'same'
p13
sS'dense_layer_size'
p14
(lp15
I445
aI409
aI947
asS'nb_classes'
p16
I47
sS'sgd_lr_init'
p17
F0.25336632526496283
sS'sgd_nesterov'
p18
I01
sS'nb_filter'
p19
(lp20
I37
aI34
asS'loss_function'
p21
S'categorical_crossentropy'
p22
sS'nb_repeat'
p23
(lp24
I3
aI3
aI3
aI3
asS'nb_conv'
p25
(lp26
I1
aI7
asS'img_rows'
p27
I28
s.