(dp0
S'optimizer'
p1
S'adadelta'
p2
sS'nb_pool'
p3
(lp4
I2
aI2
asS'activation'
p5
(lp6
S'relu'
p7
ag7
ag7
aS'softmax'
p8
asS'img_cols'
p9
I28
sS'dropout'
p10
(lp11
F0.13876735020498565
aF0.08125761264138942
asS'border_mode'
p12
S'same'
p13
sS'dense_layer_size'
p14
(lp15
sS'nb_classes'
p16
I47
sS'nb_filter'
p17
(lp18
I47
aI38
aI10
asS'loss_function'
p19
S'categorical_crossentropy'
p20
sS'nb_repeat'
p21
(lp22
I2
aI1
asS'nb_conv'
p23
(lp24
I4
aI3
aI4
asS'img_rows'
p25
I28
s.