(dp0
S'nb_pool'
p1
(lp2
I3
asS'activation'
p3
(lp4
S'relu'
p5
ag5
aS'softmax'
p6
asS'sgd_momentum'
p7
F0.28610196851533426
sS'img_cols'
p8
I28
sS'sgd_decay'
p9
F3.419455165692893e-06
sS'dropout'
p10
(lp11
F0.05886765047469706
asS'border_mode'
p12
S'same'
p13
sS'dense_layer_size'
p14
(lp15
sS'nb_classes'
p16
I47
sS'sgd_lr_init'
p17
F0.7825865221229075
sS'sgd_nesterov'
p18
I01
sS'nb_filter'
p19
(lp20
I26
aI20
asS'loss_function'
p21
S'categorical_crossentropy'
p22
sS'nb_repeat'
p23
(lp24
I2
asS'nb_conv'
p25
(lp26
I5
aI7
asS'img_rows'
p27
I28
s.