(dp0
S'nb_pool'
p1
(lp2
I2
asS'activation'
p3
(lp4
S'relu'
p5
ag5
ag5
aS'softmax'
p6
asS'sgd_momentum'
p7
F0.5766620322312901
sS'img_cols'
p8
I28
sS'sgd_decay'
p9
F5.246876839658569e-06
sS'dropout'
p10
(lp11
F0.01179578676198542
aF0.15719858761956873
asS'border_mode'
p12
S'same'
p13
sS'sgd_lr_divide'
p14
F1.0198602925860576
sS'dense_layer_size'
p15
(lp16
I475
asS'nb_classes'
p17
I47
sS'sgd_lr_init'
p18
F0.4204818579433961
sS'sgd_nesterov'
p19
I00
sS'nb_filter'
p20
(lp21
I18
aI20
asS'loss_function'
p22
S'categorical_crossentropy'
p23
sS'nb_repeat'
p24
(lp25
I4
aI1
asS'nb_conv'
p26
(lp27
I5
aI5
asS'img_rows'
p28
I28
s.